target datalayout = "e-m:e-p270:32:32-p271:32:32-p272:64:64-i64:64-i128:128-f80:128-n8:16:32:64-S128"
target triple = "x86_64-pc-linux-gnu"

%class.ShenandoahAllocationRate = type { double, i64, double, %class.TruncatedSeq, %class.TruncatedSeq }
%class.TruncatedSeq = type { %class.AbsSeq, ptr, i32, i32 }
%class.AbsSeq = type { ptr, i32, double, double, double, double, double }

; Function Attrs: mustprogress nounwind uwtable
define hidden noundef double @_ZNK24ShenandoahAllocationRate18instantaneous_rateEdm(ptr noundef nonnull align 8 dereferenceable(168) %0, double noundef %1, i64 noundef %2) #1 align 2 {
  %4 = alloca ptr, align 8
  %5 = alloca double, align 8
  %6 = alloca i64, align 8
  %7 = alloca i64, align 8
  %8 = alloca double, align 8
  %9 = alloca i64, align 8
  %10 = alloca double, align 8
  store ptr %0, ptr %4, align 8
  store double %1, ptr %5, align 8
  store i64 %2, ptr %6, align 8
  %11 = load ptr, ptr %4, align 8
  %12 = getelementptr inbounds %class.ShenandoahAllocationRate, ptr %11, i32 0, i32 1
  %13 = load i64, ptr %12, align 8
  store i64 %13, ptr %7, align 8
  %14 = getelementptr inbounds %class.ShenandoahAllocationRate, ptr %11, i32 0, i32 0
  %15 = load double, ptr %14, align 8
  store double %15, ptr %8, align 8
  %16 = load i64, ptr %6, align 8
  %17 = load i64, ptr %7, align 8
  %18 = icmp ugt i64 %16, %17
  br i1 %18, label %19, label %23

19:                                               ; preds = %3
  %20 = load i64, ptr %6, align 8
  %21 = load i64, ptr %7, align 8
  %22 = sub i64 %20, %21
  br label %24

23:                                               ; preds = %3
  br label %24

24:                                               ; preds = %23, %19
  %25 = phi i64 [ %22, %19 ], [ 0, %23 ]
  store i64 %25, ptr %9, align 8
  %26 = load double, ptr %5, align 8
  %27 = load double, ptr %8, align 8
  %28 = fsub double %26, %27
  store double %28, ptr %10, align 8
  %29 = load double, ptr %10, align 8
  %30 = fcmp ogt double %29, 0.000000e+00
  br i1 %30, label %31, label %36

31:                                               ; preds = %24
  %32 = load i64, ptr %9, align 8
  %33 = uitofp i64 %32 to double
  %34 = load double, ptr %10, align 8
  %35 = fdiv double %33, %34
  br label %37

36:                                               ; preds = %24
  br label %37

37:                                               ; preds = %36, %31
  %38 = phi double [ %35, %31 ], [ 0.000000e+00, %36 ]
  ret double %38
}

; Function Attrs: mustprogress nounwind uwtable
define hidden noundef double @_ZN24ShenandoahAllocationRate6sampleEm(ptr noundef nonnull align 8 dereferenceable(168) %0, i64 noundef %1) #1 align 2 {
  %3 = alloca ptr, align 8
  %4 = alloca i64, align 8
  %5 = alloca double, align 8
  %6 = alloca double, align 8
  store ptr %0, ptr %3, align 8
  store i64 %1, ptr %4, align 8
  %7 = load ptr, ptr %3, align 8
  %8 = call noundef double @_ZN2os11elapsedTimeEv()
  store double %8, ptr %5, align 8
  store double 0.000000e+00, ptr %6, align 8
  %9 = load double, ptr %5, align 8
  %10 = getelementptr inbounds %class.ShenandoahAllocationRate, ptr %7, i32 0, i32 0
  %11 = load double, ptr %10, align 8
  %12 = fsub double %9, %11
  %13 = getelementptr inbounds %class.ShenandoahAllocationRate, ptr %7, i32 0, i32 2
  %14 = load double, ptr %13, align 8
  %15 = fcmp ogt double %12, %14
  br i1 %15, label %16, label %35

16:                                               ; preds = %2
  %17 = load i64, ptr %4, align 8
  %18 = getelementptr inbounds %class.ShenandoahAllocationRate, ptr %7, i32 0, i32 1
  %19 = load i64, ptr %18, align 8
  %20 = icmp uge i64 %17, %19
  br i1 %20, label %21, label %30

21:                                               ; preds = %16
  %22 = load double, ptr %5, align 8
  %23 = load i64, ptr %4, align 8
  %24 = call noundef double @_ZNK24ShenandoahAllocationRate18instantaneous_rateEdm(ptr noundef nonnull align 8 dereferenceable(168) %7, double noundef %22, i64 noundef %23)
  store double %24, ptr %6, align 8
  %25 = getelementptr inbounds %class.ShenandoahAllocationRate, ptr %7, i32 0, i32 3
  %26 = load double, ptr %6, align 8
  call void @_ZN12TruncatedSeq3addEd(ptr noundef nonnull align 8 dereferenceable(72) %25, double noundef %26)
  %27 = getelementptr inbounds %class.ShenandoahAllocationRate, ptr %7, i32 0, i32 4
  %28 = getelementptr inbounds %class.ShenandoahAllocationRate, ptr %7, i32 0, i32 3
  %29 = call noundef double @_ZNK6AbsSeq3avgEv(ptr noundef nonnull align 8 dereferenceable(56) %28)
  call void @_ZN12TruncatedSeq3addEd(ptr noundef nonnull align 8 dereferenceable(72) %27, double noundef %29)
  br label %30

30:                                               ; preds = %21, %16
  %31 = load double, ptr %5, align 8
  %32 = getelementptr inbounds %class.ShenandoahAllocationRate, ptr %7, i32 0, i32 0
  store double %31, ptr %32, align 8
  %33 = load i64, ptr %4, align 8
  %34 = getelementptr inbounds %class.ShenandoahAllocationRate, ptr %7, i32 0, i32 1
  store i64 %33, ptr %34, align 8
  br label %35

35:                                               ; preds = %30, %2
  %36 = load double, ptr %6, align 8
  ret double %36
}