; Function Attrs: mustprogress nounwind uwtable
define hidden noundef double @_ZN24ShenandoahAllocationRate6sampleEm(ptr noundef nonnull align 8 dereferenceable(168) %0, i64 noundef %1) local_unnamed_addr #0 align 2 {
  %3 = tail call noundef double @_ZN2os11elapsedTimeEv() #11
  %4 = load double, ptr %0, align 8
  %5 = fsub double %3, %4
  %6 = getelementptr inbounds i8, ptr %0, i64 16
  %7 = load double, ptr %6, align 8
  %8 = fcmp ogt double %5, %7
  br i1 %8, label %9, label %22

9:                                                ; preds = %2
  %10 = getelementptr inbounds i8, ptr %0, i64 8
  %11 = load i64, ptr %10, align 8
  %.not = icmp ugt i64 %11, %1
  br i1 %.not, label %21, label %12

12:                                               ; preds = %9
  %13 = tail call i64 @llvm.usub.sat.i64(i64 %1, i64 %11)
  %14 = fcmp ogt double %5, 0.000000e+00
  %15 = uitofp i64 %13 to double
  %16 = fdiv double %15, %5
  %17 = select i1 %14, double %16, double 0.000000e+00
  %18 = getelementptr inbounds i8, ptr %0, i64 24
  tail call void @_ZN12TruncatedSeq3addEd(ptr noundef nonnull align 8 dereferenceable(72) %18, double noundef %17) #11
  %19 = getelementptr inbounds i8, ptr %0, i64 96
  %20 = tail call noundef double @_ZNK6AbsSeq3avgEv(ptr noundef nonnull align 8 dereferenceable(56) %18) #11
  tail call void @_ZN12TruncatedSeq3addEd(ptr noundef nonnull align 8 dereferenceable(72) %19, double noundef %20) #11
  br label %21

21:                                               ; preds = %12, %9
  %.0 = phi double [ %17, %12 ], [ 0.000000e+00, %9 ]
  store double %3, ptr %0, align 8
  store i64 %1, ptr %10, align 8
  br label %22

22:                                               ; preds = %21, %2
  %.1 = phi double [ %.0, %21 ], [ 0.000000e+00, %2 ]
  ret double %.1
}